0000000000000000 V DW.ref.__gxx_personality_v0
                 U _GLOBAL_OFFSET_TABLE_
00000000000006be t _GLOBAL__sub_I_interface.cc
                 U _Unwind_Resume
0000000000000675 t _Z41__static_initialization_and_destruction_0ii
0000000000000000 t _ZL18__gthread_active_pv
000000000000001f t _ZL20__gthread_mutex_lockP15pthread_mutex_t
000000000000004e t _ZL22__gthread_mutex_unlockP15pthread_mutex_t
                 U _ZN8fasttext8FastText9loadModelERKNSt7__cxx1112basic_stringIcSt11char_traitsIcESaIcEEE
                 U _ZN8fasttext8FastTextC1Ev
000000000000007e T _ZN9Interface11getInstanceEv
0000000000000020 B _ZN9Interface6_mutexE
0000000000000048 B _ZN9Interface7_loadedE
000000000000021a T _ZN9Interface7predictERKNSt7__cxx1112basic_stringIcSt11char_traitsIcESaIcEEERS5_Rd
0000000000000000 B _ZN9Interface9_instanceE
0000000000000160 T _ZN9Interface9loadModelERKNSt7__cxx1112basic_stringIcSt11char_traitsIcESaIcEEE
0000000000000000 W _ZN9InterfaceC1Ev
0000000000000000 W _ZN9InterfaceC2Ev
0000000000000000 n _ZN9InterfaceC5Ev
0000000000000000 W _ZN9__gnu_cxx13new_allocatorISt4pairIfNSt7__cxx1112basic_stringIcSt11char_traitsIcESaIcEEEEE10deallocateEPS8_m
0000000000000000 W _ZN9__gnu_cxx13new_allocatorISt4pairIfNSt7__cxx1112basic_stringIcSt11char_traitsIcESaIcEEEEEC1Ev
0000000000000000 W _ZN9__gnu_cxx13new_allocatorISt4pairIfNSt7__cxx1112basic_stringIcSt11char_traitsIcESaIcEEEEEC2Ev
0000000000000000 n _ZN9__gnu_cxx13new_allocatorISt4pairIfNSt7__cxx1112basic_stringIcSt11char_traitsIcESaIcEEEEEC5Ev
0000000000000000 W _ZN9__gnu_cxx13new_allocatorISt4pairIfNSt7__cxx1112basic_stringIcSt11char_traitsIcESaIcEEEEED1Ev
0000000000000000 W _ZN9__gnu_cxx13new_allocatorISt4pairIfNSt7__cxx1112basic_stringIcSt11char_traitsIcESaIcEEEEED2Ev
0000000000000000 n _ZN9__gnu_cxx13new_allocatorISt4pairIfNSt7__cxx1112basic_stringIcSt11char_traitsIcESaIcEEEEED5Ev
0000000000000000 W _ZN9__gnu_cxx17__normal_iteratorIPSt4pairIfNSt7__cxx1112basic_stringIcSt11char_traitsIcESaIcEEEESt6vectorIS8_SaIS8_EEEC1ERKS9_
0000000000000000 W _ZN9__gnu_cxx17__normal_iteratorIPSt4pairIfNSt7__cxx1112basic_stringIcSt11char_traitsIcESaIcEEEESt6vectorIS8_SaIS8_EEEC2ERKS9_
0000000000000000 n _ZN9__gnu_cxx17__normal_iteratorIPSt4pairIfNSt7__cxx1112basic_stringIcSt11char_traitsIcESaIcEEEESt6vectorIS8_SaIS8_EEEC5ERKS9_
0000000000000008 r _ZN9__gnu_cxxL21__default_lock_policyE
0000000000000000 W _ZN9__gnu_cxxneIPSt4pairIfNSt7__cxx1112basic_stringIcSt11char_traitsIcESaIcEEEESt6vectorIS8_SaIS8_EEEEbRKNS_17__normal_iteratorIT_T0_EESI_
                 U _ZNK8fasttext8FastText11predictLineERSiRSt6vectorISt4pairIfNSt7__cxx1112basic_stringIcSt11char_traitsIcESaIcEEEESaISA_EEif
0000000000000000 W _ZNK9__gnu_cxx17__normal_iteratorIPSt4pairIfNSt7__cxx1112basic_stringIcSt11char_traitsIcESaIcEEEESt6vectorIS8_SaIS8_EEE4baseEv
0000000000000000 W _ZNK9__gnu_cxx17__normal_iteratorIPSt4pairIfNSt7__cxx1112basic_stringIcSt11char_traitsIcESaIcEEEESt6vectorIS8_SaIS8_EEEptEv
                 U _ZNKSt7__cxx1112basic_stringIcSt11char_traitsIcESaIcEE4sizeEv
                 U _ZNKSt7__cxx1112basic_stringIcSt11char_traitsIcESaIcEE5c_strEv
                 U _ZNKSt7__cxx1112basic_stringIcSt11char_traitsIcESaIcEE5emptyEv
0000000000000000 W _ZNSaISt4pairIfNSt7__cxx1112basic_stringIcSt11char_traitsIcESaIcEEEEEC1Ev
0000000000000000 W _ZNSaISt4pairIfNSt7__cxx1112basic_stringIcSt11char_traitsIcESaIcEEEEEC2Ev
0000000000000000 n _ZNSaISt4pairIfNSt7__cxx1112basic_stringIcSt11char_traitsIcESaIcEEEEEC5Ev
0000000000000000 W _ZNSaISt4pairIfNSt7__cxx1112basic_stringIcSt11char_traitsIcESaIcEEEEED1Ev
0000000000000000 W _ZNSaISt4pairIfNSt7__cxx1112basic_stringIcSt11char_traitsIcESaIcEEEEED2Ev
0000000000000000 n _ZNSaISt4pairIfNSt7__cxx1112basic_stringIcSt11char_traitsIcESaIcEEEEED5Ev
                 U _ZNSaIcEC1Ev
                 U _ZNSaIcED1Ev
0000000000000000 W _ZNSt10lock_guardISt5mutexEC1ERS0_
0000000000000000 W _ZNSt10lock_guardISt5mutexEC2ERS0_
0000000000000000 n _ZNSt10lock_guardISt5mutexEC5ERS0_
0000000000000000 W _ZNSt10lock_guardISt5mutexED1Ev
0000000000000000 W _ZNSt10lock_guardISt5mutexED2Ev
0000000000000000 n _ZNSt10lock_guardISt5mutexED5Ev
0000000000000000 W _ZNSt12_Destroy_auxILb0EE9__destroyIPSt4pairIfNSt7__cxx1112basic_stringIcSt11char_traitsIcESaIcEEEEEEvT_SB_
0000000000000000 W _ZNSt12_Vector_baseISt4pairIfNSt7__cxx1112basic_stringIcSt11char_traitsIcESaIcEEEESaIS7_EE12_Vector_implC1Ev
0000000000000000 W _ZNSt12_Vector_baseISt4pairIfNSt7__cxx1112basic_stringIcSt11char_traitsIcESaIcEEEESaIS7_EE12_Vector_implC2Ev
0000000000000000 n _ZNSt12_Vector_baseISt4pairIfNSt7__cxx1112basic_stringIcSt11char_traitsIcESaIcEEEESaIS7_EE12_Vector_implC5Ev
0000000000000000 W _ZNSt12_Vector_baseISt4pairIfNSt7__cxx1112basic_stringIcSt11char_traitsIcESaIcEEEESaIS7_EE12_Vector_implD1Ev
0000000000000000 W _ZNSt12_Vector_baseISt4pairIfNSt7__cxx1112basic_stringIcSt11char_traitsIcESaIcEEEESaIS7_EE12_Vector_implD2Ev
0000000000000000 n _ZNSt12_Vector_baseISt4pairIfNSt7__cxx1112basic_stringIcSt11char_traitsIcESaIcEEEESaIS7_EE12_Vector_implD5Ev
0000000000000000 W _ZNSt12_Vector_baseISt4pairIfNSt7__cxx1112basic_stringIcSt11char_traitsIcESaIcEEEESaIS7_EE13_M_deallocateEPS7_m
0000000000000000 W _ZNSt12_Vector_baseISt4pairIfNSt7__cxx1112basic_stringIcSt11char_traitsIcESaIcEEEESaIS7_EE19_M_get_Tp_allocatorEv
0000000000000000 W _ZNSt12_Vector_baseISt4pairIfNSt7__cxx1112basic_stringIcSt11char_traitsIcESaIcEEEESaIS7_EEC1Ev
0000000000000000 W _ZNSt12_Vector_baseISt4pairIfNSt7__cxx1112basic_stringIcSt11char_traitsIcESaIcEEEESaIS7_EEC2Ev
0000000000000000 n _ZNSt12_Vector_baseISt4pairIfNSt7__cxx1112basic_stringIcSt11char_traitsIcESaIcEEEESaIS7_EEC5Ev
0000000000000000 W _ZNSt12_Vector_baseISt4pairIfNSt7__cxx1112basic_stringIcSt11char_traitsIcESaIcEEEESaIS7_EED1Ev
0000000000000000 W _ZNSt12_Vector_baseISt4pairIfNSt7__cxx1112basic_stringIcSt11char_traitsIcESaIcEEEESaIS7_EED2Ev
0000000000000000 n _ZNSt12_Vector_baseISt4pairIfNSt7__cxx1112basic_stringIcSt11char_traitsIcESaIcEEEESaIS7_EED5Ev
0000000000000000 W _ZNSt16allocator_traitsISaISt4pairIfNSt7__cxx1112basic_stringIcSt11char_traitsIcESaIcEEEEEE10deallocateERS8_PS7_m
0000000000000000 W _ZNSt4pairIfNSt7__cxx1112basic_stringIcSt11char_traitsIcESaIcEEEED1Ev
0000000000000000 W _ZNSt4pairIfNSt7__cxx1112basic_stringIcSt11char_traitsIcESaIcEEEED2Ev
0000000000000000 n _ZNSt4pairIfNSt7__cxx1112basic_stringIcSt11char_traitsIcESaIcEEEED5Ev
0000000000000000 W _ZNSt5mutex4lockEv
0000000000000000 W _ZNSt5mutex6unlockEv
0000000000000000 W _ZNSt6vectorISt4pairIfNSt7__cxx1112basic_stringIcSt11char_traitsIcESaIcEEEESaIS7_EE3endEv
0000000000000000 W _ZNSt6vectorISt4pairIfNSt7__cxx1112basic_stringIcSt11char_traitsIcESaIcEEEESaIS7_EE5beginEv
0000000000000000 W _ZNSt6vectorISt4pairIfNSt7__cxx1112basic_stringIcSt11char_traitsIcESaIcEEEESaIS7_EEC1Ev
0000000000000000 W _ZNSt6vectorISt4pairIfNSt7__cxx1112basic_stringIcSt11char_traitsIcESaIcEEEESaIS7_EEC2Ev
0000000000000000 n _ZNSt6vectorISt4pairIfNSt7__cxx1112basic_stringIcSt11char_traitsIcESaIcEEEESaIS7_EEC5Ev
0000000000000000 W _ZNSt6vectorISt4pairIfNSt7__cxx1112basic_stringIcSt11char_traitsIcESaIcEEEESaIS7_EED1Ev
0000000000000000 W _ZNSt6vectorISt4pairIfNSt7__cxx1112basic_stringIcSt11char_traitsIcESaIcEEEESaIS7_EED2Ev
0000000000000000 n _ZNSt6vectorISt4pairIfNSt7__cxx1112basic_stringIcSt11char_traitsIcESaIcEEEESaIS7_EED5Ev
                 U _ZNSt7__cxx1112basic_stringIcSt11char_traitsIcESaIcEE5clearEv
                 U _ZNSt7__cxx1112basic_stringIcSt11char_traitsIcESaIcEEC1EPKcRKS3_
                 U _ZNSt7__cxx1112basic_stringIcSt11char_traitsIcESaIcEEC1Ev
                 U _ZNSt7__cxx1112basic_stringIcSt11char_traitsIcESaIcEED1Ev
                 U _ZNSt7__cxx1112basic_stringIcSt11char_traitsIcESaIcEEaSEPKc
                 U _ZNSt7__cxx1118basic_stringstreamIcSt11char_traitsIcESaIcEEC1ERKNS_12basic_stringIcS2_S3_EESt13_Ios_Openmode
                 U _ZNSt7__cxx1118basic_stringstreamIcSt11char_traitsIcESaIcEED1Ev
                 U _ZNSt8ios_base4InitC1Ev
                 U _ZNSt8ios_base4InitD1Ev
0000000000000000 W _ZSt11__addressofISt4pairIfNSt7__cxx1112basic_stringIcSt11char_traitsIcESaIcEEEEEPT_RS8_
                 U _ZSt20__throw_system_errori
0000000000000000 W _ZSt8_DestroyIPSt4pairIfNSt7__cxx1112basic_stringIcSt11char_traitsIcESaIcEEEEEvT_S9_
0000000000000000 W _ZSt8_DestroyIPSt4pairIfNSt7__cxx1112basic_stringIcSt11char_traitsIcESaIcEEEES7_EvT_S9_RSaIT0_E
0000000000000000 W _ZSt8_DestroyISt4pairIfNSt7__cxx1112basic_stringIcSt11char_traitsIcESaIcEEEEEvPT_
0000000000000005 r _ZStL10adopt_lock
0000000000000003 r _ZStL10defer_lock
0000000000000004 r _ZStL11try_to_lock
0000000000000001 r _ZStL13allocator_arg
0000000000000000 r _ZStL19piecewise_construct
0000000000000002 r _ZStL6ignore
0000000000000049 b _ZStL8__ioinit
0000000000000000 W _ZStorSt13_Ios_OpenmodeS_
0000000000000000 d _ZZL18__gthread_active_pvE20__gthread_active_ptr
                 U _ZdlPv
                 U _Znwm
                 U __cxa_atexit
                 U __dso_handle
                 U __gxx_personality_v0
                 w __pthread_key_create
                 U __stack_chk_fail
00000000000003f0 T getInstance
00000000000004c6 T predictSentence
0000000000000407 T prepareModel
                 w pthread_mutex_lock
                 w pthread_mutex_unlock
                 U strncpy
